ccopy_reg
_reconstructor
p0
(c__main__
TNode
p1
c__builtin__
object
p2
Ntp3
Rp4
(dp5
S'cnt'
p6
I0
sS'tag'
p7
I00
sS'child'
p8
(dp9
S'a'
p10
g0
(c__main__
Node
p11
g2
Ntp12
Rp13
(dp14
g6
I1
sg7
I01
sg8
(dp15
S'd'
p16
g0
(g11
g2
Ntp17
Rp18
(dp19
g6
I1
sg7
I01
sg8
(dp20
S'm'
p21
g0
(g11
g2
Ntp22
Rp23
(dp24
g6
I1
sg7
I01
sg8
(dp25
S'i'
p26
g0
(g11
g2
Ntp27
Rp28
(dp29
g6
I0
sg7
I01
sg8
(dp30
S'n'
p31
g0
(g11
g2
Ntp32
Rp33
(dp34
g6
I1
sg7
I01
sg8
(dp35
sbssbssbssbssbsS'1'
p36
g0
(g11
g2
Ntp37
Rp38
(dp39
g6
I0
sg7
I01
sg8
(dp40
S'2'
p41
g0
(g11
g2
Ntp42
Rp43
(dp44
g6
I0
sg7
I01
sg8
(dp45
S'3'
p46
g0
(g11
g2
Ntp47
Rp48
(dp49
g6
I0
sg7
I01
sg8
(dp50
S'4'
p51
g0
(g11
g2
Ntp52
Rp53
(dp54
g6
I1
sg7
I01
sg8
(dp55
sbssbssbssbsS's'
p56
g0
(g11
g2
Ntp57
Rp58
(dp59
g6
I0
sg7
I01
sg8
(dp60
g56
g0
(g11
g2
Ntp61
Rp62
(dp63
g6
I0
sg7
I01
sg8
(dp64
g56
g0
(g11
g2
Ntp65
Rp66
(dp67
g6
I1
sg7
I01
sg8
(dp68
sbssbssbssb.